ccopy_reg
_reconstructor
p0
(cgoogle.oauth2.credentials
Credentials
p1
c__builtin__
object
p2
Ntp3
Rp4
(dp5
S'_token_uri'
p6
Vhttps://oauth2.googleapis.com/token
p7
sS'_scopes'
p8
(lp9
S'https://www.googleapis.com/auth/calendar.readonly'
p10
asS'_id_token'
p11
NsS'token'
p12
Vya29.GlyiBvGd0ojcrU38fHHidt1sX-rYveD9MfjkYIJcKK2oo33t51T8qkAKJd-MvdzvkLgZv3AfLgebBu5CTyxgDF3E3pGqsbfk_5RHpdTB0MS8nBVQfE8R_mTqqtspeg
p13
sS'_refresh_token'
p14
V1/X3QKO_lEAVAwxHUyhdvaP_Mab7tB3RaDQWKOk3rO2WM
p15
sS'_client_secret'
p16
VbvODOHBn5l3J17rfeF5QOPzI
p17
sS'_client_id'
p18
V148900019511-2fre6j2ul7mudb0m2085b20aju8ihp9f.apps.googleusercontent.com
p19
sS'expiry'
p20
cdatetime
datetime
p21
(S"\x07\xe3\x01\x1f\x08\x10,\r'!"
p22
tp23
Rp24
sb.